; Function Attrs: mustprogress nofree norecurse nosync nounwind willreturn memory(read, inaccessiblemem: none) uwtable
define { <2 x float>, float } @_ZNK3vcg3tri2io9BreHeader14CameraPositionEv(ptr nocapture noundef nonnull readonly align 8 dereferenceable(16) %0) local_unnamed_addr #14 align 2 {
  %2 = getelementptr inbounds i8, ptr %0, i64 8
  %3 = load ptr, ptr %2, align 8
  %4 = getelementptr inbounds i8, ptr %3, i64 16
  %5 = load i64, ptr %4, align 8
  %6 = getelementptr inbounds i8, ptr %3, i64 %5
  %7 = getelementptr inbounds i8, ptr %6, i64 38
  %8 = load <2 x float>, ptr %7, align 4
  %9 = getelementptr inbounds i8, ptr %6, i64 46
  %10 = load float, ptr %9, align 4
  %.fca.0.insert = insertvalue { <2 x float>, float } poison, <2 x float> %8, 0
  %.fca.1.insert = insertvalue { <2 x float>, float } %.fca.0.insert, float %10, 1
  ret { <2 x float>, float } %.fca.1.insert
}